; Function Attrs: mustprogress uwtable
define dso_local void @_ZN4Json12StyledWriter8unindentEv(ptr noundef nonnull align 8 dereferenceable(105) %0) local_unnamed_addr #0 align 2 {
  %2 = getelementptr inbounds i8, ptr %0, i64 64
  %3 = tail call noundef i64 @_ZNKSt7__cxx1112basic_stringIcSt11char_traitsIcESaIcEE4sizeEv(ptr noundef nonnull align 8 dereferenceable(32) %2) #19
  %4 = getelementptr inbounds i8, ptr %0, i64 100
  %5 = load i32, ptr %4, align 4
  %6 = zext i32 %5 to i64
  %7 = sub i64 %3, %6
  tail call void @_ZNSt7__cxx1112basic_stringIcSt11char_traitsIcESaIcEE6resizeEm(ptr noundef nonnull align 8 dereferenceable(32) %2, i64 noundef %7)
  ret void
}